; Function Attrs: mustprogress uwtable
define noundef nonnull align 8 dereferenceable(64) ptr @_ZNK6icu_7712ICUDataTable3getEPKcS2_S2_RNS_13UnicodeStringE(ptr noundef nonnull readonly align 8 captures(none) dereferenceable(232) %0, ptr noundef %1, ptr noundef %2, ptr noundef %3, ptr noundef nonnull align 8 dereferenceable(64) %4) local_unnamed_addr #1 align 2 personality ptr @__gxx_personality_v0 {
  %6 = alloca i32, align 4
  %7 = alloca i32, align 4
  %8 = alloca %"class.icu_77::UnicodeString", align 8
  call void @llvm.lifetime.start.p0(i64 4, ptr nonnull %6) #19
  store i32 0, ptr %6, align 4, !tbaa !13
  call void @llvm.lifetime.start.p0(i64 4, ptr nonnull %7) #19
  store i32 0, ptr %7, align 4, !tbaa !12
  %9 = load ptr, ptr %0, align 8, !tbaa !15
  %10 = getelementptr inbounds nuw i8, ptr %0, i64 48
  %11 = load ptr, ptr %10, align 8, !tbaa !19
  %12 = call ptr @uloc_getTableStringWithFallback_77(ptr noundef %9, ptr noundef %11, ptr noundef %1, ptr noundef %2, ptr noundef %3, ptr noundef nonnull %7, ptr noundef nonnull %6)
  %13 = load i32, ptr %6, align 4, !tbaa !13
  %14 = icmp slt i32 %13, 1
  %15 = load i32, ptr %7, align 4
  %16 = icmp sgt i32 %15, 0
  %or.cond = select i1 %14, i1 %16, i1 false
  br i1 %or.cond, label %17, label %27

17:                                               ; preds = %5
  call void @_ZN6icu_7713UnicodeString7unBogusEv(ptr noundef nonnull align 8 dereferenceable(64) %4)
  %18 = getelementptr inbounds nuw i8, ptr %4, i64 8
  %19 = load i16, ptr %18, align 8, !tbaa !20
  %20 = icmp slt i16 %19, 0
  %21 = ashr i16 %19, 5
  %22 = sext i16 %21 to i32
  %23 = getelementptr inbounds nuw i8, ptr %4, i64 12
  %24 = load i32, ptr %23, align 4
  %25 = select i1 %20, i32 %24, i32 %22
  %26 = call noundef nonnull align 8 dereferenceable(64) ptr @_ZN6icu_7713UnicodeString9doReplaceEiiPKDsii(ptr noundef nonnull align 8 dereferenceable(64) %4, i32 noundef 0, i32 noundef %25, ptr noundef %12, i32 noundef 0, i32 noundef %15)
  br label %31

27:                                               ; preds = %5
  call void @llvm.lifetime.start.p0(i64 64, ptr nonnull %8) #19
  call void @_ZN6icu_7713UnicodeStringC1EPKciNS0_10EInvariantE(ptr noundef nonnull align 8 dereferenceable(64) %8, ptr noundef %3, i32 noundef -1, i32 noundef 0)
  %28 = invoke noundef nonnull align 8 dereferenceable(64) ptr @_ZN6icu_7713UnicodeString8copyFromERKS0_a(ptr noundef nonnull align 8 dereferenceable(64) %4, ptr noundef nonnull align 8 dereferenceable(64) %8, i8 noundef signext 0)
          to label %_ZN6icu_7713UnicodeString5setToERKS0_.exit unwind label %29

_ZN6icu_7713UnicodeString5setToERKS0_.exit:       ; preds = %27
  call void @_ZN6icu_7713UnicodeStringD1Ev(ptr noundef nonnull align 8 dereferenceable(64) %8) #19
  call void @llvm.lifetime.end.p0(i64 64, ptr nonnull %8) #19
  br label %31

29:                                               ; preds = %27
  %30 = landingpad { ptr, i32 }
          cleanup
  call void @_ZN6icu_7713UnicodeStringD1Ev(ptr noundef nonnull align 8 dereferenceable(64) %8) #19
  call void @llvm.lifetime.end.p0(i64 64, ptr nonnull %8) #19
  call void @llvm.lifetime.end.p0(i64 4, ptr nonnull %7) #19
  call void @llvm.lifetime.end.p0(i64 4, ptr nonnull %6) #19
  resume { ptr, i32 } %30

31:                                               ; preds = %_ZN6icu_7713UnicodeString5setToERKS0_.exit, %17
  %.0 = phi ptr [ %26, %17 ], [ %28, %_ZN6icu_7713UnicodeString5setToERKS0_.exit ]
  call void @llvm.lifetime.end.p0(i64 4, ptr nonnull %7) #19
  call void @llvm.lifetime.end.p0(i64 4, ptr nonnull %6) #19
  ret ptr %.0
}